; Function Attrs: mustprogress nounwind uwtable
define dso_local void @_ZN4llvm8coverage22FunctionRecordIterator14skipOtherFilesEv(ptr noundef nonnull align 8 captures(none) dereferenceable(40) %0) local_unnamed_addr #0 align 2 {
  %2 = getelementptr inbounds nuw i8, ptr %0, i64 16
  %3 = getelementptr inbounds nuw i8, ptr %0, i64 8
  %4 = getelementptr inbounds nuw i8, ptr %0, i64 32
  %5 = load ptr, ptr %2, align 8
  %6 = load ptr, ptr %0, align 8
  %7 = load i64, ptr %3, align 8
  %8 = getelementptr inbounds %"struct.llvm::coverage::FunctionRecord", ptr %6, i64 %7
  %.not8 = icmp eq ptr %5, %8
  %9 = load i64, ptr %4, align 8
  %10 = icmp eq i64 %9, 0
  %or.cond9 = select i1 %.not8, i1 true, i1 %10
  br i1 %or.cond9, label %.critedge, label %.lr.ph

.lr.ph:                                           ; preds = %1
  %11 = getelementptr inbounds nuw i8, ptr %0, i64 24
  br label %12

12:                                               ; preds = %.lr.ph, %_ZN4llvmneENS_9StringRefES0_.exit.thread
  %.sroa.2.0.copyload = phi i64 [ %9, %.lr.ph ], [ %23, %_ZN4llvmneENS_9StringRefES0_.exit.thread ]
  %13 = phi ptr [ %5, %.lr.ph ], [ %19, %_ZN4llvmneENS_9StringRefES0_.exit.thread ]
  %.sroa.0.0.copyload = load ptr, ptr %11, align 8
  %14 = getelementptr inbounds nuw i8, ptr %13, i64 32
  %15 = load ptr, ptr %14, align 8
  %16 = tail call noundef ptr @_ZNKSt7__cxx1112basic_stringIcSt11char_traitsIcESaIcEE4dataEv(ptr noundef nonnull align 8 dereferenceable(32) %15) #28
  %17 = tail call noundef i64 @_ZNKSt7__cxx1112basic_stringIcSt11char_traitsIcESaIcEE6lengthEv(ptr noundef nonnull align 8 dereferenceable(32) %15) #28
  %.not.i.i = icmp eq i64 %.sroa.2.0.copyload, %17
  br i1 %.not.i.i, label %_ZN4llvmneENS_9StringRefES0_.exit, label %_ZN4llvmneENS_9StringRefES0_.exit.thread

_ZN4llvmneENS_9StringRefES0_.exit:                ; preds = %12
  %bcmp.i.i = tail call i32 @bcmp(ptr %.sroa.0.0.copyload, ptr %16, i64 %.sroa.2.0.copyload)
  %.not4 = icmp eq i32 %bcmp.i.i, 0
  br i1 %.not4, label %.critedge.loopexit, label %_ZN4llvmneENS_9StringRefES0_.exit.thread

_ZN4llvmneENS_9StringRefES0_.exit.thread:         ; preds = %12, %_ZN4llvmneENS_9StringRefES0_.exit
  %18 = load ptr, ptr %2, align 8
  %19 = getelementptr inbounds nuw i8, ptr %18, i64 136
  store ptr %19, ptr %2, align 8
  %20 = load ptr, ptr %0, align 8
  %21 = load i64, ptr %3, align 8
  %22 = getelementptr inbounds %"struct.llvm::coverage::FunctionRecord", ptr %20, i64 %21
  %.not = icmp eq ptr %19, %22
  %23 = load i64, ptr %4, align 8
  %24 = icmp eq i64 %23, 0
  %or.cond = select i1 %.not, i1 true, i1 %24
  br i1 %or.cond, label %.critedge.loopexit, label %12, !llvm.loop !73

.critedge.loopexit:                               ; preds = %_ZN4llvmneENS_9StringRefES0_.exit.thread, %_ZN4llvmneENS_9StringRefES0_.exit
  %.pre = load ptr, ptr %2, align 8
  %.pre14 = load ptr, ptr %0, align 8
  %.pre15 = load i64, ptr %3, align 8
  br label %.critedge

.critedge:                                        ; preds = %.critedge.loopexit, %1
  %25 = phi i64 [ %.pre15, %.critedge.loopexit ], [ %7, %1 ]
  %26 = phi ptr [ %.pre14, %.critedge.loopexit ], [ %6, %1 ]
  %27 = phi ptr [ %.pre, %.critedge.loopexit ], [ %5, %1 ]
  %28 = getelementptr inbounds %"struct.llvm::coverage::FunctionRecord", ptr %26, i64 %25
  %29 = icmp eq ptr %27, %28
  br i1 %29, label %30, label %31

30:                                               ; preds = %.critedge
  tail call void @llvm.memset.p0.i64(ptr noundef nonnull align 8 dereferenceable(40) %0, i8 0, i64 40, i1 false)
  br label %31

31:                                               ; preds = %30, %.critedge
  ret void
}